; Function Attrs: nounwind uwtable
define internal range(i32 0, 2) i32 @ec_GFp_mont_point_get_affine_coordinates(ptr noundef %0, ptr noundef %1, ptr noundef %2, ptr noundef %3, ptr noundef %4) #0 {
  %6 = tail call i32 @EC_POINT_is_at_infinity(ptr noundef %0, ptr noundef %1) #3
  %.not = icmp eq i32 %6, 0
  br i1 %.not, label %8, label %7

7:                                                ; preds = %5
  tail call void @ERR_put_error(i32 noundef 15, i32 noundef 0, i32 noundef 119, ptr noundef nonnull @.str, i32 noundef 223) #3
  br label %67

8:                                                ; preds = %5
  %9 = icmp eq ptr %4, null
  br i1 %9, label %10, label %13

10:                                               ; preds = %8
  %11 = tail call ptr @BN_CTX_new() #3
  %12 = icmp eq ptr %11, null
  br i1 %12, label %67, label %13

13:                                               ; preds = %10, %8
  %.069 = phi ptr [ %11, %10 ], [ null, %8 ]
  %.068 = phi ptr [ %11, %10 ], [ %4, %8 ]
  tail call void @BN_CTX_start(ptr noundef nonnull %.068) #3
  %14 = getelementptr inbounds nuw i8, ptr %1, i64 56
  %15 = getelementptr inbounds nuw i8, ptr %0, i64 168
  %16 = tail call i32 @BN_cmp(ptr noundef nonnull %14, ptr noundef nonnull %15) #3
  %17 = icmp eq i32 %16, 0
  br i1 %17, label %18, label %30

18:                                               ; preds = %13
  %.not91 = icmp eq ptr %2, null
  br i1 %.not91, label %24, label %19

19:                                               ; preds = %18
  %20 = getelementptr inbounds nuw i8, ptr %1, i64 8
  %21 = getelementptr inbounds nuw i8, ptr %0, i64 160
  %22 = load ptr, ptr %21, align 8, !tbaa !6
  %23 = tail call i32 @BN_from_montgomery(ptr noundef nonnull %2, ptr noundef nonnull %20, ptr noundef %22, ptr noundef nonnull %.068) #3
  %.not92 = icmp eq i32 %23, 0
  br i1 %.not92, label %.thread, label %24

24:                                               ; preds = %19, %18
  %.not93 = icmp eq ptr %3, null
  br i1 %.not93, label %66, label %25

25:                                               ; preds = %24
  %26 = getelementptr inbounds nuw i8, ptr %1, i64 32
  %27 = getelementptr inbounds nuw i8, ptr %0, i64 160
  %28 = load ptr, ptr %27, align 8, !tbaa !6
  %29 = tail call i32 @BN_from_montgomery(ptr noundef nonnull %3, ptr noundef nonnull %26, ptr noundef %28, ptr noundef nonnull %.068) #3
  %.not94 = icmp eq i32 %29, 0
  br i1 %.not94, label %.thread, label %66

30:                                               ; preds = %13
  %31 = tail call ptr @BN_CTX_get(ptr noundef nonnull %.068) #3
  %32 = tail call ptr @BN_CTX_get(ptr noundef nonnull %.068) #3
  %33 = tail call ptr @BN_CTX_get(ptr noundef nonnull %.068) #3
  %34 = icmp eq ptr %31, null
  %35 = icmp eq ptr %32, null
  %or.cond = select i1 %34, i1 true, i1 %35
  %36 = icmp eq ptr %33, null
  %or.cond3 = select i1 %or.cond, i1 true, i1 %36
  br i1 %or.cond3, label %.thread, label %37

37:                                               ; preds = %30
  %38 = getelementptr inbounds nuw i8, ptr %0, i64 160
  %39 = load ptr, ptr %38, align 8, !tbaa !6
  %40 = tail call i32 @BN_from_montgomery(ptr noundef nonnull %31, ptr noundef nonnull %14, ptr noundef %39, ptr noundef nonnull %.068) #3
  %.not81 = icmp eq i32 %40, 0
  br i1 %.not81, label %.thread, label %41

41:                                               ; preds = %37
  %42 = load ptr, ptr %38, align 8, !tbaa !6
  %43 = tail call i32 @BN_from_montgomery(ptr noundef nonnull %31, ptr noundef nonnull %31, ptr noundef %42, ptr noundef nonnull %.068) #3
  %.not82 = icmp eq i32 %43, 0
  br i1 %.not82, label %.thread, label %44

44:                                               ; preds = %41
  %45 = getelementptr inbounds nuw i8, ptr %0, i64 80
  %46 = tail call ptr @BN_mod_inverse(ptr noundef nonnull %31, ptr noundef nonnull %31, ptr noundef nonnull %45, ptr noundef nonnull %.068) #3
  %.not83 = icmp eq ptr %46, null
  br i1 %.not83, label %.thread, label %47

47:                                               ; preds = %44
  %48 = load ptr, ptr %38, align 8, !tbaa !6
  %49 = tail call i32 @BN_mod_mul_montgomery(ptr noundef nonnull %32, ptr noundef nonnull %31, ptr noundef nonnull %31, ptr noundef %48, ptr noundef nonnull %.068) #3
  %.not84 = icmp eq i32 %49, 0
  br i1 %.not84, label %.thread, label %50

50:                                               ; preds = %47
  %51 = load ptr, ptr %38, align 8, !tbaa !6
  %52 = tail call i32 @BN_from_montgomery(ptr noundef nonnull %32, ptr noundef nonnull %32, ptr noundef %51, ptr noundef nonnull %.068) #3
  %.not85 = icmp eq i32 %52, 0
  br i1 %.not85, label %.thread, label %53

53:                                               ; preds = %50
  %.not86 = icmp eq ptr %2, null
  br i1 %.not86, label %58, label %54

54:                                               ; preds = %53
  %55 = getelementptr inbounds nuw i8, ptr %1, i64 8
  %56 = load ptr, ptr %38, align 8, !tbaa !6
  %57 = tail call i32 @BN_mod_mul_montgomery(ptr noundef nonnull %2, ptr noundef nonnull %55, ptr noundef nonnull %32, ptr noundef %56, ptr noundef nonnull %.068) #3
  %.not87 = icmp eq i32 %57, 0
  br i1 %.not87, label %.thread, label %58

58:                                               ; preds = %54, %53
  %.not88 = icmp eq ptr %3, null
  br i1 %.not88, label %66, label %59

59:                                               ; preds = %58
  %60 = load ptr, ptr %38, align 8, !tbaa !6
  %61 = tail call i32 @BN_mod_mul_montgomery(ptr noundef nonnull %33, ptr noundef nonnull %32, ptr noundef nonnull %31, ptr noundef %60, ptr noundef nonnull %.068) #3
  %.not89 = icmp eq i32 %61, 0
  br i1 %.not89, label %.thread, label %62

62:                                               ; preds = %59
  %63 = getelementptr inbounds nuw i8, ptr %1, i64 32
  %64 = load ptr, ptr %38, align 8, !tbaa !6
  %65 = tail call i32 @BN_mod_mul_montgomery(ptr noundef nonnull %3, ptr noundef nonnull %63, ptr noundef nonnull %33, ptr noundef %64, ptr noundef nonnull %.068) #3
  %.not90 = icmp eq i32 %65, 0
  br i1 %.not90, label %.thread, label %66

66:                                               ; preds = %62, %58, %24, %25
  br label %.thread

.thread:                                          ; preds = %59, %62, %54, %50, %47, %37, %41, %44, %30, %25, %19, %66
  %.070 = phi i32 [ 1, %66 ], [ 0, %25 ], [ 0, %19 ], [ 0, %30 ], [ 0, %44 ], [ 0, %41 ], [ 0, %37 ], [ 0, %47 ], [ 0, %50 ], [ 0, %54 ], [ 0, %62 ], [ 0, %59 ]
  tail call void @BN_CTX_end(ptr noundef nonnull %.068) #3
  tail call void @BN_CTX_free(ptr noundef %.069) #3
  br label %67

67:                                               ; preds = %.thread, %10, %7
  %.0 = phi i32 [ 0, %7 ], [ %.070, %.thread ], [ 0, %10 ]
  ret i32 %.0
}